; Function Attrs: nounwind uwtable
define void @QuESTAssert(i32 noundef %0, i32 noundef %1, ptr noundef %2) local_unnamed_addr #3 {
  %.not = icmp eq i32 %0, 0
  br i1 %.not, label %4, label %8

4:                                                ; preds = %3
  %5 = zext i32 %1 to i64
  %6 = getelementptr inbounds nuw [92 x ptr], ptr @errorMessages, i64 0, i64 %5
  %7 = load ptr, ptr %6, align 8, !tbaa !4
  tail call void @invalidQuESTInputError(ptr noundef %7, ptr noundef %2)
  br label %8

8:                                                ; preds = %4, %3
  ret void
}